; Function Attrs: mustprogress uwtable
define hidden void @_ZN11state_graph17mark_unknown_coreEj(ptr noundef nonnull align 8 dereferenceable(152) %0, i32 noundef %1) local_unnamed_addr #3 align 2 {
  %3 = getelementptr inbounds nuw i8, ptr %0, i64 24
  %4 = lshr i32 %1, 5
  %5 = load ptr, ptr %3, align 8, !tbaa !3
  %6 = icmp eq ptr %5, null
  br i1 %6, label %_ZN8uint_set6removeEj.exit, label %_ZNK6vectorIjLb0EjE4sizeEv.exit.i

_ZNK6vectorIjLb0EjE4sizeEv.exit.i:                ; preds = %2
  %7 = getelementptr inbounds i8, ptr %5, i64 -4
  %8 = load i32, ptr %7, align 4, !tbaa !9
  %9 = icmp ult i32 %4, %8
  br i1 %9, label %10, label %_ZN8uint_set6removeEj.exit

10:                                               ; preds = %_ZNK6vectorIjLb0EjE4sizeEv.exit.i
  %11 = and i32 %1, 31
  %12 = shl nuw i32 1, %11
  %13 = xor i32 %12, -1
  %14 = zext nneg i32 %4 to i64
  %15 = getelementptr inbounds nuw i32, ptr %5, i64 %14
  %16 = load i32, ptr %15, align 4, !tbaa !9
  %17 = and i32 %16, %13
  store i32 %17, ptr %15, align 4, !tbaa !9
  br label %_ZN8uint_set6removeEj.exit

_ZN8uint_set6removeEj.exit:                       ; preds = %2, %_ZNK6vectorIjLb0EjE4sizeEv.exit.i, %10
  %18 = getelementptr inbounds nuw i8, ptr %0, i64 16
  %19 = load ptr, ptr %18, align 8, !tbaa !3
  %20 = icmp eq ptr %19, null
  br i1 %20, label %thread-pre-split.i.i.preheader, label %_ZNK6vectorIjLb0EjE4sizeEv.exit.i2

_ZNK6vectorIjLb0EjE4sizeEv.exit.i2:               ; preds = %_ZN8uint_set6removeEj.exit
  %21 = getelementptr inbounds i8, ptr %19, i64 -4
  %22 = load i32, ptr %21, align 4, !tbaa !9
  %.not.i = icmp ult i32 %4, %22
  br i1 %.not.i, label %_ZN8uint_set6insertEj.exit, label %thread-pre-split.i.i.preheader

thread-pre-split.i.i.preheader:                   ; preds = %_ZNK6vectorIjLb0EjE4sizeEv.exit.i2, %_ZN8uint_set6removeEj.exit
  %.ph = phi ptr [ null, %_ZN8uint_set6removeEj.exit ], [ %19, %_ZNK6vectorIjLb0EjE4sizeEv.exit.i2 ]
  %.0.i16.i.i.ph = phi i32 [ 0, %_ZN8uint_set6removeEj.exit ], [ %22, %_ZNK6vectorIjLb0EjE4sizeEv.exit.i2 ]
  %.ph3 = add nuw nsw i32 %4, 1
  br label %thread-pre-split.i.i

thread-pre-split.i.i:                             ; preds = %thread-pre-split.i.i.preheader, %_ZNK6vectorIjLb0EjE8capacityEv.exit.thread.i.i
  %23 = phi ptr [ %.pr.pre.i.i, %_ZNK6vectorIjLb0EjE8capacityEv.exit.thread.i.i ], [ %.ph, %thread-pre-split.i.i.preheader ]
  %24 = icmp eq ptr %23, null
  br i1 %24, label %_ZNK6vectorIjLb0EjE8capacityEv.exit.thread.i.i, label %_ZNK6vectorIjLb0EjE8capacityEv.exit.i.i

_ZNK6vectorIjLb0EjE8capacityEv.exit.i.i:          ; preds = %thread-pre-split.i.i
  %25 = getelementptr inbounds i8, ptr %23, i64 -8
  %26 = load i32, ptr %25, align 4, !tbaa !9
  %.not = icmp ult i32 %4, %26
  br i1 %.not, label %27, label %_ZNK6vectorIjLb0EjE8capacityEv.exit.thread.i.i

_ZNK6vectorIjLb0EjE8capacityEv.exit.thread.i.i:   ; preds = %_ZNK6vectorIjLb0EjE8capacityEv.exit.i.i, %thread-pre-split.i.i
  tail call void @_ZN6vectorIjLb0EjE13expand_vectorEv(ptr noundef nonnull align 8 dereferenceable(8) %18)
  %.pr.pre.i.i = load ptr, ptr %18, align 8, !tbaa !3
  br label %thread-pre-split.i.i, !llvm.loop !13

27:                                               ; preds = %_ZNK6vectorIjLb0EjE8capacityEv.exit.i.i
  %28 = getelementptr inbounds i8, ptr %23, i64 -4
  store i32 %.ph3, ptr %28, align 4, !tbaa !9
  %.not1218.i.i = icmp eq i32 %.0.i16.i.i.ph, %.ph3
  br i1 %.not1218.i.i, label %_ZN8uint_set6insertEj.exit, label %.lr.ph.preheader.i.i

.lr.ph.preheader.i.i:                             ; preds = %27
  %29 = zext nneg i32 %.ph3 to i64
  %30 = zext i32 %.0.i16.i.i.ph to i64
  %31 = getelementptr i32, ptr %23, i64 %30
  %32 = sub nsw i64 %29, %30
  %33 = shl nsw i64 %32, 2
  tail call void @llvm.memset.p0.i64(ptr align 4 %31, i8 0, i64 %33, i1 false), !tbaa !9
  br label %_ZN8uint_set6insertEj.exit

_ZN8uint_set6insertEj.exit:                       ; preds = %_ZNK6vectorIjLb0EjE4sizeEv.exit.i2, %27, %.lr.ph.preheader.i.i
  %34 = phi ptr [ %23, %.lr.ph.preheader.i.i ], [ %23, %27 ], [ %19, %_ZNK6vectorIjLb0EjE4sizeEv.exit.i2 ]
  %35 = and i32 %1, 31
  %36 = shl nuw i32 1, %35
  %37 = zext nneg i32 %4 to i64
  %38 = getelementptr inbounds nuw i32, ptr %34, i64 %37
  %39 = load i32, ptr %38, align 4, !tbaa !9
  %40 = or i32 %39, %36
  store i32 %40, ptr %38, align 4, !tbaa !9
  ret void
}